; Function Attrs: mustprogress nounwind uwtable
define dso_local void @_ZN4llvm9misexpect28checkFrontendInstrumentationERNS_11InstructionENS_8ArrayRefIjEE(ptr noundef nonnull align 8 dereferenceable(72) %0, ptr readonly captures(none) %1, i64 %2) local_unnamed_addr #0 {
  %4 = alloca %"class.llvm::SmallVector.14", align 8
  %5 = getelementptr inbounds nuw i8, ptr %4, i64 16
  call void @_ZN4llvm15SmallVectorBaseIjEC2EPvm(ptr noundef nonnull align 8 dereferenceable(64) %4, ptr noundef nonnull %5, i64 noundef 12) #11
  %6 = call noundef zeroext i1 @_ZN4llvm20extractBranchWeightsERKNS_11InstructionERNS_15SmallVectorImplIjEE(ptr noundef nonnull align 8 dereferenceable(72) %0, ptr noundef nonnull align 8 dereferenceable(16) %4) #11
  br i1 %6, label %7, label %10

7:                                                ; preds = %3
  %8 = load ptr, ptr %4, align 8
  %9 = call noundef i64 @_ZNK4llvm15SmallVectorBaseIjE4sizeEv(ptr noundef nonnull align 8 dereferenceable(16) %4) #11
  call void @_ZN4llvm9misexpect15verifyMisExpectERNS_11InstructionENS_8ArrayRefIjEES4_(ptr noundef nonnull align 8 dereferenceable(72) %0, ptr %8, i64 %9, ptr %1, i64 %2)
  br label %10

10:                                               ; preds = %3, %7
  %11 = call noundef i64 @_ZNK4llvm15SmallVectorBaseIjE4sizeEv(ptr noundef nonnull align 8 dereferenceable(64) %4) #11
  %12 = load ptr, ptr %4, align 8
  %13 = icmp eq ptr %12, %5
  br i1 %13, label %_ZN4llvm11SmallVectorIjLj12EED2Ev.exit, label %14

14:                                               ; preds = %10
  call void @free(ptr noundef %12) #11
  br label %_ZN4llvm11SmallVectorIjLj12EED2Ev.exit

_ZN4llvm11SmallVectorIjLj12EED2Ev.exit:           ; preds = %10, %14
  ret void
}